; Function Attrs: mustprogress nofree norecurse nosync nounwind willreturn memory(none) uwtable
define dso_local { ptr, i64 } @_ZN5clang4ento18retaincountchecker11RefCountBug13bugTypeToNameENS2_15RefCountBugKindE(i32 noundef %0) local_unnamed_addr #0 align 2 {
switch.lookup:
  %1 = sext i32 %0 to i64
  %switch.gep = getelementptr inbounds [8 x i64], ptr @switch.table._ZN5clang4ento18retaincountchecker11RefCountBugC2ENS0_14CheckerNameRefENS2_15RefCountBugKindE, i64 0, i64 %1
  %switch.load = load i64, ptr %switch.gep, align 8
  %2 = sext i32 %0 to i64
  %switch.gep1 = getelementptr inbounds [8 x ptr], ptr @switch.table._ZN5clang4ento18retaincountchecker11RefCountBugC2ENS0_14CheckerNameRefENS2_15RefCountBugKindE.8, i64 0, i64 %2
  %switch.load2 = load ptr, ptr %switch.gep1, align 8
  %.fca.0.insert = insertvalue { ptr, i64 } poison, ptr %switch.load2, 0
  %.fca.1.insert = insertvalue { ptr, i64 } %.fca.0.insert, i64 %switch.load, 1
  ret { ptr, i64 } %.fca.1.insert
}